; Function Attrs: nofree norecurse nosync nounwind memory(argmem: readwrite) uwtable
define internal void @hor_down_32x32_c(ptr noundef writeonly captures(none) %0, i64 noundef %1, ptr noundef readonly captures(none) %2, ptr noundef readonly captures(none) %3) #2 {
  %5 = alloca [94 x i8], align 16
  call void @llvm.lifetime.start.p0(i64 94, ptr nonnull %5) #13
  %.pre = load i8, ptr %2, align 1, !tbaa !8
  %.pre48 = load i8, ptr %3, align 1, !tbaa !8
  %invariant.gep = getelementptr inbounds nuw i8, ptr %2, i64 2
  %invariant.gep49 = getelementptr i8, ptr %3, i64 -1
  br label %6

6:                                                ; preds = %4, %6
  %7 = phi i8 [ %.pre48, %4 ], [ %34, %6 ]
  %8 = phi i8 [ %.pre, %4 ], [ %10, %6 ]
  %indvars.iv = phi i64 [ 0, %4 ], [ %indvars.iv.next, %6 ]
  %indvars.iv.next = add nuw nsw i64 %indvars.iv, 1
  %9 = getelementptr inbounds nuw i8, ptr %2, i64 %indvars.iv.next
  %10 = load i8, ptr %9, align 1, !tbaa !8
  %11 = zext i8 %10 to i16
  %12 = zext i8 %8 to i16
  %13 = add nuw nsw i16 %11, 1
  %14 = add nuw nsw i16 %13, %12
  %15 = lshr i16 %14, 1
  %16 = trunc nuw i16 %15 to i8
  %17 = shl nuw nsw i64 %indvars.iv, 1
  %18 = getelementptr inbounds nuw [94 x i8], ptr %5, i64 0, i64 %17
  store i8 %16, ptr %18, align 2, !tbaa !8
  %gep = getelementptr inbounds nuw i8, ptr %invariant.gep, i64 %indvars.iv
  %19 = load i8, ptr %gep, align 1, !tbaa !8
  %20 = zext i8 %19 to i16
  %21 = shl nuw nsw i16 %11, 1
  %22 = add nuw nsw i16 %21, 2
  %23 = add nuw nsw i16 %22, %12
  %24 = add nuw nsw i16 %23, %20
  %25 = lshr i16 %24, 2
  %26 = trunc nuw i16 %25 to i8
  %27 = or disjoint i64 %17, 1
  %28 = getelementptr inbounds nuw [94 x i8], ptr %5, i64 0, i64 %27
  store i8 %26, ptr %28, align 1, !tbaa !8
  %gep50 = getelementptr i8, ptr %invariant.gep49, i64 %indvars.iv
  %29 = load i8, ptr %gep50, align 1, !tbaa !8
  %30 = zext i8 %29 to i16
  %31 = zext i8 %7 to i16
  %32 = shl nuw nsw i16 %31, 1
  %33 = getelementptr inbounds nuw i8, ptr %3, i64 %indvars.iv.next
  %34 = load i8, ptr %33, align 1, !tbaa !8
  %35 = zext i8 %34 to i16
  %36 = add nuw nsw i16 %30, 2
  %37 = add nuw nsw i16 %36, %32
  %38 = add nuw nsw i16 %37, %35
  %39 = lshr i16 %38, 2
  %40 = trunc nuw i16 %39 to i8
  %41 = or disjoint i64 %indvars.iv, 64
  %42 = getelementptr inbounds nuw [94 x i8], ptr %5, i64 0, i64 %41
  store i8 %40, ptr %42, align 1, !tbaa !8
  %exitcond.not = icmp eq i64 %indvars.iv.next, 30
  br i1 %exitcond.not, label %43, label %6, !llvm.loop !67

43:                                               ; preds = %6
  %44 = getelementptr inbounds i8, ptr %3, i64 -1
  %45 = load i8, ptr %44, align 1, !tbaa !8
  %46 = zext i8 %45 to i16
  %47 = getelementptr inbounds nuw i8, ptr %2, i64 31
  %48 = load i8, ptr %47, align 1, !tbaa !8
  %49 = zext i8 %48 to i16
  %50 = add nuw nsw i16 %49, 1
  %51 = add nuw nsw i16 %50, %46
  %52 = lshr i16 %51, 1
  %53 = trunc nuw i16 %52 to i8
  %54 = getelementptr inbounds nuw i8, ptr %5, i64 62
  store i8 %53, ptr %54, align 2, !tbaa !8
  %55 = getelementptr inbounds nuw i8, ptr %2, i64 30
  %56 = load i8, ptr %55, align 1, !tbaa !8
  %57 = zext i8 %56 to i16
  %58 = add nuw nsw i16 %50, %57
  %59 = lshr i16 %58, 1
  %60 = trunc nuw i16 %59 to i8
  %61 = getelementptr inbounds nuw i8, ptr %5, i64 60
  store i8 %60, ptr %61, align 4, !tbaa !8
  %62 = zext i8 %.pre48 to i16
  %63 = shl nuw nsw i16 %46, 1
  %64 = add nuw nsw i16 %63, 2
  %65 = add nuw nsw i16 %64, %49
  %66 = add nuw nsw i16 %65, %62
  %67 = lshr i16 %66, 2
  %68 = trunc nuw i16 %67 to i8
  %69 = getelementptr inbounds nuw i8, ptr %5, i64 63
  store i8 %68, ptr %69, align 1, !tbaa !8
  %70 = shl nuw nsw i16 %49, 1
  %71 = add nuw nsw i16 %46, 2
  %72 = add nuw nsw i16 %71, %70
  %73 = add nuw nsw i16 %72, %57
  %74 = lshr i16 %73, 2
  %75 = trunc nuw i16 %74 to i8
  %76 = getelementptr inbounds nuw i8, ptr %5, i64 61
  store i8 %75, ptr %76, align 1, !tbaa !8
  br label %77

77:                                               ; preds = %43, %77
  %indvars.iv44 = phi i64 [ 0, %43 ], [ %indvars.iv.next45, %77 ]
  %78 = mul nsw i64 %1, %indvars.iv44
  %79 = getelementptr inbounds i8, ptr %0, i64 %78
  %.neg = mul nsw i64 %indvars.iv44, -2
  %80 = getelementptr inbounds i8, ptr %54, i64 %.neg
  call void @llvm.memcpy.p0.p0.i64(ptr noundef nonnull align 1 dereferenceable(32) %79, ptr noundef nonnull align 2 dereferenceable(32) %80, i64 32, i1 false)
  %indvars.iv.next45 = add nuw nsw i64 %indvars.iv44, 1
  %exitcond47.not = icmp eq i64 %indvars.iv.next45, 32
  br i1 %exitcond47.not, label %81, label %77, !llvm.loop !68

81:                                               ; preds = %77
  call void @llvm.lifetime.end.p0(i64 94, ptr nonnull %5) #13
  ret void
}